target datalayout = "e-m:e-p270:32:32-p271:32:32-p272:64:64-i64:64-i128:128-f80:128-n8:16:32:64-S128"
target triple = "x86_64-pc-linux-gnu"

%struct.darktable_t = type { %struct.dt_codepath_t, i32, i32, ptr, ptr, ptr, ptr, ptr, ptr, ptr, ptr, ptr, ptr, ptr, ptr, ptr, ptr, ptr, ptr, ptr, ptr, ptr, ptr, ptr, ptr, ptr, ptr, ptr, ptr, ptr, [64 x %struct.dt_pthread_mutex_t], %struct.dt_pthread_mutex_t, %struct.dt_pthread_mutex_t, %struct.dt_pthread_mutex_t, %struct.dt_pthread_mutex_t, %struct.dt_pthread_mutex_t, ptr, ptr, ptr, ptr, ptr, ptr, ptr, ptr, ptr, ptr, ptr, ptr, ptr, %struct.dt_lua_state_t, ptr, double, ptr, i32, [47 x i32], i32, i32, ptr, ptr, %struct.dt_sys_resources_t, %struct.dt_backthumb_t, %struct.dt_gimp_t }
%struct.dt_codepath_t = type { i8, [3 x i8] }
%struct.dt_pthread_mutex_t = type { %union.pthread_mutex_t }
%union.pthread_mutex_t = type { %struct.__pthread_mutex_s }
%struct.__pthread_mutex_s = type { i32, i32, i32, i32, i32, i16, i16, %struct.__pthread_internal_list }
%struct.__pthread_internal_list = type { ptr, ptr }
%struct.dt_lua_state_t = type { i32 }
%struct.dt_sys_resources_t = type { i64, i64, ptr, ptr, i32 }
%struct.dt_backthumb_t = type { double, double, i32, i32, i32, i32 }
%struct.dt_gimp_t = type { i32, ptr, ptr, i32, i32 }
%struct._GList = type { ptr, ptr, ptr }

@darktable = external global %struct.darktable_t, align 8
@.str.57 = private unnamed_addr constant [2 x i8] c".\00", align 1

; Function Attrs: nounwind uwtable
define internal void @theme_callback(ptr noundef %0, ptr noundef %1) #0 {
  %3 = alloca ptr, align 8
  %4 = alloca ptr, align 8
  %5 = alloca i32, align 4
  %6 = alloca ptr, align 8
  %7 = alloca ptr, align 8
  store ptr %0, ptr %3, align 8, !tbaa !6
  store ptr %1, ptr %4, align 8, !tbaa !61
  call void @llvm.lifetime.start.p0(i64 4, ptr %5) #10
  %8 = load ptr, ptr %3, align 8, !tbaa !6
  %9 = call i32 @dt_bauhaus_combobox_get(ptr noundef %8)
  store i32 %9, ptr %5, align 4, !tbaa !57
  call void @llvm.lifetime.start.p0(i64 8, ptr %6) #10
  %10 = load ptr, ptr getelementptr inbounds nuw (%struct.darktable_t, ptr @darktable, i32 0, i32 52), align 8, !tbaa !96
  %11 = load i32, ptr %5, align 4, !tbaa !57
  %12 = call ptr @g_list_nth(ptr noundef %10, i32 noundef %11)
  %13 = getelementptr inbounds nuw %struct._GList, ptr %12, i32 0, i32 0
  %14 = load ptr, ptr %13, align 8, !tbaa !91
  store ptr %14, ptr %6, align 8, !tbaa !73
  call void @llvm.lifetime.start.p0(i64 8, ptr %7) #10
  %15 = load ptr, ptr %6, align 8, !tbaa !73
  %16 = call ptr @g_strrstr(ptr noundef %15, ptr noundef @.str.57)
  store ptr %16, ptr %7, align 8, !tbaa !73
  %17 = load ptr, ptr %7, align 8, !tbaa !73
  %18 = icmp ne ptr %17, null
  br i1 %18, label %19, label %21

19:                                               ; preds = %2
  %20 = load ptr, ptr %7, align 8, !tbaa !73
  store i8 0, ptr %20, align 1, !tbaa !74
  br label %21

21:                                               ; preds = %19, %2
  %22 = load ptr, ptr %6, align 8, !tbaa !73
  call void @dt_gui_load_theme(ptr noundef %22)
  call void (...) @dt_bauhaus_load_theme()
  call void @llvm.lifetime.end.p0(i64 8, ptr %7) #10
  call void @llvm.lifetime.end.p0(i64 8, ptr %6) #10
  call void @llvm.lifetime.end.p0(i64 4, ptr %5) #10
  ret void
}