; Function Attrs: nounwind uwtable
define internal void @theme_callback(ptr noundef %0, ptr readnone captures(none) %1) #0 {
  %3 = tail call i32 @dt_bauhaus_combobox_get(ptr noundef %0) #12
  %4 = load ptr, ptr getelementptr inbounds nuw (i8, ptr @darktable, i64 3120), align 8, !tbaa !68
  %5 = tail call ptr @g_list_nth(ptr noundef %4, i32 noundef %3) #12
  %6 = load ptr, ptr %5, align 8, !tbaa !69
  %7 = tail call ptr @g_strrstr(ptr noundef %6, ptr noundef nonnull @.str.57) #12
  %.not = icmp eq ptr %7, null
  br i1 %.not, label %9, label %8

8:                                                ; preds = %2
  store i8 0, ptr %7, align 1, !tbaa !59
  br label %9

9:                                                ; preds = %8, %2
  tail call void @dt_gui_load_theme(ptr noundef %6) #12
  tail call void (...) @dt_bauhaus_load_theme() #12
  ret void
}